Certificate:
    Data:
        Version: 3 (0x2)
        Serial Number:
            e6:2b:f9:22:5c:3e:fa:f9:10:04:f2:69:39:3b:a7:46
    Signature Algorithm: sha256WithRSAEncryption
        Issuer: C=GB, O=Example, CN=Root CA
        Validity
            Not Before: Jan  1 00:00:00 2021 GMT
            Not After : Jan  2 00:00:00 2021 GMT
        Subject: C=GB, O=Example, CN=Root CA
        Subject Public Key Info:
            Public Key Algorithm: rsaEncryption
                Public-Key: (4096 bit)
                Modulus:
                    00:9c:83:95:33:f0:6c:d0:71:62:42:ce:cd:9a:a1:
                    a5:9c:e2:fe:57:23:9c:9e:41:e2:b6:5a:6d:d9:76:
                    29:59:39:47:20:45:6c:2a:4a:0c:af:9e:47:29:c6:
                    b3:60:90:1d:92:40:2c:4f:5f:c0:58:a7:40:d2:64:
                    43:37:f9:29:10:51:0f:b1:b3:a9:2d:bf:2e:c2:a0:
                    f5:49:1f:46:e3:b9:b0:d5:53:07:8e:2d:bf:97:cc:
                    71:0a:20:ca:c5:29:5e:2d:a4:20:5b:fe:79:d7:2c:
                    08:9d:ee:e6:42:39:8c:8f:d4:c4:3a:56:c9:65:26:
                    fa:64:aa:15:e9:55:d4:5a:db:79:a2:f4:32:9f:74:
                    d4:d2:8f:cb:6d:dd:f3:46:02:55:86:6c:59:c9:8e:
                    52:3e:5e:32:1a:8e:44:bc:97:0c:97:45:f0:1c:d4:
                    ca:17:ce:d6:49:5e:15:78:ff:da:a7:c3:8e:14:c0:
                    e0:f2:e3:9c:7f:4c:51:ed:9b:63:48:23:eb:dc:ac:
                    a1:cc:50:42:e3:7d:45:6e:c4:49:b1:d3:84:3b:6e:
                    c0:51:b2:25:ed:5d:e1:0c:6f:35:dc:3a:63:38:29:
                    3c:26:4b:de:d1:65:8a:07:90:ad:c4:c3:52:53:10:
                    c7:83:6b:0f:51:d0:0a:6f:41:52:00:7f:2d:7f:52:
                    0e:5f:42:cb:fa:e5:66:44:e9:33:96:bf:a2:aa:81:
                    4b:dc:e9:0a:d8:f5:e1:89:7d:12:54:68:20:97:61:
                    c3:4d:3e:5c:1c:6d:33:a4:6f:6a:49:6b:e7:98:c8:
                    b0:e6:13:3f:3c:65:94:25:16:5e:bf:63:55:f0:32:
                    c5:5d:18:8c:8b:25:62:c4:7d:7a:c7:bd:4a:03:80:
                    c9:f6:6e:c3:69:7b:37:e0:7f:9c:16:a5:31:d7:4b:
                    e9:eb:8a:1d:50:56:a9:b8:bb:86:a0:ab:cd:65:3d:
                    34:e5:da:2a:a2:5e:f7:da:a5:b8:4a:c8:96:f4:4d:
                    ae:39:be:cc:43:d3:26:2b:1e:26:c7:ee:fc:8f:91:
                    b9:41:3b:18:1a:47:c6:ec:27:e4:88:eb:82:73:20:
                    af:ea:3b:e8:8d:be:c9:8f:32:1f:55:f4:ac:e9:64:
                    2f:4e:11:9e:09:c4:9f:a1:ef:0c:19:02:05:2e:03:
                    eb:a8:f5:66:41:78:18:7e:8a:2a:cc:0f:f7:d6:76:
                    bb:af:92:ba:fc:7a:9f:45:63:09:18:97:ee:76:44:
                    5f:52:16:43:c6:89:57:35:5d:16:89:77:87:c6:4b:
                    a8:92:b1:a5:d4:e7:41:3f:80:39:c1:af:87:86:ba:
                    ad:87:51:0a:8b:95:6d:1f:39:47:ee:7f:01:38:0d:
                    2e:c8:07
                Exponent: 65537 (0x10001)
        X509v3 extensions:
            X509v3 Basic Constraints: critical
                CA:TRUE
            X509v3 Key Usage: critical
                Certificate Sign, CRL Sign
            X509v3 Subject Key Identifier: 
                C9:7A:AC:22:99:FB:79:AF:0F:77:AC:8E:24:8B:ED:5F:5C:83:F1:99
    Signature Algorithm: sha256WithRSAEncryption
         90:3b:e0:c7:09:12:2f:97:8c:45:1c:d1:4d:1e:09:69:36:9f:
         04:7e:f5:c0:3d:4d:47:0f:86:fb:2d:1b:da:e8:3b:57:fa:e2:
         64:73:66:24:66:99:93:65:8b:8b:0a:f8:b1:60:f1:78:ca:dd:
         e5:43:9c:0d:b2:e5:0b:da:61:82:22:f1:77:0b:f9:db:09:c5:
         46:75:37:5d:24:5d:c8:3e:24:6c:ec:8a:99:d0:8f:67:7a:2b:
         57:fa:d3:f4:d2:e2:3d:4d:02:22:bd:aa:46:ad:6e:89:14:74:
         85:a0:c6:d2:ac:4f:32:e7:33:44:94:a0:5a:1f:b3:df:4e:bb:
         68:e1:04:da:1b:a8:58:e5:d7:b3:b1:6a:b6:bc:25:b5:49:30:
         e9:f0:46:25:d8:51:ed:37:37:a8:db:3e:6a:a6:6c:fa:ac:a3:
         66:8b:ff:fa:10:af:57:96:33:b6:9e:bc:99:8c:b1:cc:7a:47:
         78:e3:78:f5:4e:01:4d:82:c4:60:46:3c:94:a5:42:d0:12:02:
         d3:10:38:d6:5c:c7:08:fd:99:2f:1c:5d:61:c6:ce:99:28:ca:
         5e:81:48:cf:b0:9f:8c:13:ec:b6:28:3e:f5:6d:c2:e2:ba:c2:
         7d:de:f7:bb:a7:64:46:b4:84:ba:9d:6c:91:98:ab:89:b7:ad:
         d7:e7:b5:85:a9:05:3b:d8:7d:87:ff:d9:f4:9d:d3:8b:b8:a5:
         a9:0e:40:4a:c3:42:57:0e:b6:97:5b:09:b1:67:e8:67:6c:1e:
         36:b0:98:43:41:11:b9:09:06:f4:20:02:63:88:41:d5:82:03:
         d4:17:4b:07:1c:3c:ca:5d:80:f6:c3:85:6b:cb:1e:bf:f0:08:
         43:8e:f6:e0:7e:c4:bd:f8:19:19:6b:0d:9a:e8:ac:47:63:b3:
         67:47:aa:f3:5d:76:0f:94:78:f3:cd:14:e4:4f:ea:6b:4b:25:
         07:77:44:09:8e:a6:d9:68:f4:27:71:ac:31:0a:21:9e:99:69:
         fe:e6:21:8b:50:2e:94:85:5f:33:80:f9:ea:5d:b7:24:9d:0d:
         72:89:9d:99:a5:bf:46:c7:9a:66:f1:87:d6:0b:bf:c8:29:cf:
         89:12:35:0b:36:ee:73:5a:a1:dc:f0:41:95:a7:41:d7:01:aa:
         b7:ee:7a:e8:6f:27:0b:c3:73:37:01:d3:ee:af:20:3b:75:03:
         d0:cf:94:ee:98:b0:f0:93:c4:67:b6:6b:e4:04:6e:a3:5f:64:
         e0:e9:bc:8d:13:b9:1e:ef:08:11:d5:b6:dc:60:08:c2:c2:cb:
         02:77:35:91:d0:e2:d1:0a:be:89:60:b4:6d:7d:7f:1d:8b:42:
         f9:a0:b8:34:92:e7:f5:b3
-----BEGIN CERTIFICATE-----
MIIFMzCCAxugAwIBAgIRAOYr+SJcPvr5EATyaTk7p0YwDQYJKoZIhvcNAQELBQAw
MTELMAkGA1UEBhMCR0IxEDAOBgNVBAoMB0V4YW1wbGUxEDAOBgNVBAMMB1Jvb3Qg
Q0EwIhgPMjAyMTAxMDEwMDAwMDBaGA8yMDIxMDEwMjAwMDAwMFowMTELMAkGA1UE
BhMCR0IxEDAOBgNVBAoMB0V4YW1wbGUxEDAOBgNVBAMMB1Jvb3QgQ0EwggIiMA0G
CSqGSIb3DQEBAQUAA4ICDwAwggIKAoICAQCcg5Uz8GzQcWJCzs2aoaWc4v5XI5ye
QeK2Wm3ZdilZOUcgRWwqSgyvnkcpxrNgkB2SQCxPX8BYp0DSZEM3+SkQUQ+xs6kt
vy7CoPVJH0bjubDVUweOLb+XzHEKIMrFKV4tpCBb/nnXLAid7uZCOYyP1MQ6Vsll
JvpkqhXpVdRa23mi9DKfdNTSj8tt3fNGAlWGbFnJjlI+XjIajkS8lwyXRfAc1MoX
ztZJXhV4/9qnw44UwODy45x/TFHtm2NII+vcrKHMUELjfUVuxEmx04Q7bsBRsiXt
XeEMbzXcOmM4KTwmS97RZYoHkK3Ew1JTEMeDaw9R0ApvQVIAfy1/Ug5fQsv65WZE
6TOWv6KqgUvc6QrY9eGJfRJUaCCXYcNNPlwcbTOkb2pJa+eYyLDmEz88ZZQlFl6/
Y1XwMsVdGIyLJWLEfXrHvUoDgMn2bsNpezfgf5wWpTHXS+nrih1QVqm4u4agq81l
PTTl2iqiXvfapbhKyJb0Ta45vsxD0yYrHibH7vyPkblBOxgaR8bsJ+SI64JzIK/q
O+iNvsmPMh9V9KzpZC9OEZ4JxJ+h7wwZAgUuA+uo9WZBeBh+iirMD/fWdruvkrr8
ep9FYwkYl+52RF9SFkPGiVc1XRaJd4fGS6iSsaXU50E/gDnBr4eGuq2HUQqLlW0f
OUfufwE4DS7IBwIDAQABo0IwQDAPBgNVHRMBAf8EBTADAQH/MA4GA1UdDwEB/wQE
AwIBBjAdBgNVHQ4EFgQUyXqsIpn7ea8Pd6yOJIvtX1yD8ZkwDQYJKoZIhvcNAQEL
BQADggIBAJA74McJEi+XjEUc0U0eCWk2nwR+9cA9TUcPhvstG9roO1f64mRzZiRm
mZNli4sK+LFg8XjK3eVDnA2y5QvaYYIi8XcL+dsJxUZ1N10kXcg+JGzsipnQj2d6
K1f60/TS4j1NAiK9qkatbokUdIWgxtKsTzLnM0SUoFofs99Ou2jhBNobqFjl17Ox
ara8JbVJMOnwRiXYUe03N6jbPmqmbPqso2aL//oQr1eWM7aevJmMscx6R3jjePVO
AU2CxGBGPJSlQtASAtMQONZcxwj9mS8cXWHGzpkoyl6BSM+wn4wT7LYoPvVtwuK6
wn3e97unZEa0hLqdbJGYq4m3rdfntYWpBTvYfYf/2fSd04u4pakOQErDQlcOtpdb
CbFn6GdsHjawmENBEbkJBvQgAmOIQdWCA9QXSwccPMpdgPbDhWvLHr/wCEOO9uB+
xL34GRlrDZrorEdjs2dHqvNddg+UePPNFORP6mtLJQd3RAmOptlo9CdxrDEKIZ6Z
af7mIYtQLpSFXzOA+epdtySdDXKJnZmlv0bHmmbxh9YLv8gpz4kSNQs27nNaodzw
QZWnQdcBqrfueuhvJwvDczcB0+6vIDt1A9DPlO6YsPCTxGe2a+QEbqNfZODpvI0T
uR7vCBHVttxgCMLCywJ3NZHQ4tEKvolgtG19fx2LQvmguDSS5/Wz
-----END CERTIFICATE-----
