Certificate:
    Data:
        Version: 3 (0x2)
        Serial Number:
            e6:2b:f9:22:5c:3e:fa:f9:10:04:f2:69:39:3b:a7:4a
    Signature Algorithm: sha256WithRSAEncryption
        Issuer: C=GB, O=Example, CN=Root CA
        Validity
            Not Before: Jan  1 00:00:00 2021 GMT
            Not After : Jan  2 00:00:00 2021 GMT
        Subject: C=GB, O=Example, CN=Sub CA
        Subject Public Key Info:
            Public Key Algorithm: rsaEncryption
                Public-Key: (2048 bit)
                Modulus:
                    00:b6:fb:e4:7b:11:9c:16:c6:b3:3a:9d:69:a0:10:
                    73:59:e2:40:dc:47:a1:9b:68:58:35:80:74:1c:9f:
                    f8:a6:f2:66:37:35:b2:17:26:3c:e8:60:d8:ac:a0:
                    73:1b:fa:74:0c:8d:9e:81:1c:f1:55:d1:79:d6:69:
                    21:33:7a:09:2f:44:d1:fb:0f:45:8f:6a:f9:a8:42:
                    02:72:cd:16:68:66:49:b8:2a:d1:5f:b8:c7:bd:0d:
                    b6:c8:ba:f0:a4:bc:80:52:08:1c:23:7b:9f:11:3b:
                    c5:ca:e1:c5:d7:7a:2b:34:ca:72:f5:c8:e1:14:6d:
                    62:fb:3c:c8:9a:d7:24:4e:e5:68:be:90:97:3f:5b:
                    9f:04:b3:54:32:1d:56:32:93:f1:c1:06:bb:45:54:
                    78:4a:b3:67:42:5e:71:c9:2b:fd:57:4a:d2:4c:84:
                    75:7f:84:0f:68:c5:43:cc:39:fb:21:9f:fd:c8:75:
                    63:cc:b6:22:2a:8e:fb:f4:69:99:98:6c:50:ff:0d:
                    c5:0e:4e:73:03:59:1d:b8:1e:69:7a:c1:52:b7:95:
                    75:fd:03:cf:71:c3:cb:f2:34:dd:e6:94:ec:74:3f:
                    e6:c4:9d:57:c6:5b:2b:12:04:f4:1e:2c:ab:b0:07:
                    f4:c5:27:7a:7c:22:de:8a:c7:e7:b4:f5:be:fa:14:
                    32:67
                Exponent: 65537 (0x10001)
        X509v3 extensions:
            Authority Information Access: 
                CA Issuers - URI:http://root-ca.example.com/root-ca.crt
                OCSP - URI:http://ocsp.root-ca.example.com:9080

            X509v3 Authority Key Identifier: 
                keyid:C9:7A:AC:22:99:FB:79:AF:0F:77:AC:8E:24:8B:ED:5F:5C:83:F1:99

            X509v3 Basic Constraints: critical
                CA:TRUE, pathlen:0
            X509v3 CRL Distribution Points: 

                Full Name:
                  URI:http://root-ca.example.com/root-ca.crl

            X509v3 Extended Key Usage: 
                TLS Web Client Authentication, TLS Web Server Authentication
            X509v3 Key Usage: critical
                Certificate Sign, CRL Sign
            X509v3 Name Constraints: 
                Permitted:
                  DNS:example.com
                  DNS:example.org
                  DNS:localhost
                Excluded:
                  IP:0.0.0.0/0.0.0.0
                  IP:0:0:0:0:0:0:0:0/0:0:0:0:0:0:0:0

            X509v3 Subject Key Identifier: 
                55:96:B2:31:71:76:61:A5:5E:D3:E7:CB:12:DE:B9:BA:B5:51:63:4C
    Signature Algorithm: sha256WithRSAEncryption
         0f:3f:eb:8f:f3:98:1e:96:60:3f:c2:6f:dd:2e:b2:65:1c:be:
         3e:20:11:a1:b2:04:60:bb:cd:aa:bc:f3:5c:95:5a:33:c4:c7:
         67:ce:3e:82:01:dc:2f:bb:06:41:66:d6:c8:06:d6:71:b8:cb:
         12:78:40:e3:66:7c:e1:67:ce:4f:9b:5e:54:4a:3b:ff:27:b4:
         20:07:c4:87:94:1a:63:4d:9e:1e:76:79:a7:7a:6c:f6:65:40:
         89:33:68:1d:b8:b5:8c:ba:6a:b6:b0:cd:7e:d6:32:be:ea:08:
         94:b2:d4:5d:6c:9a:20:da:fb:0b:97:d3:2e:c9:38:d0:15:42:
         15:58:86:56:04:66:64:6c:4f:4d:14:cc:ce:86:29:ae:01:f7:
         78:b0:71:ad:17:d5:81:3f:2c:56:f1:29:30:42:35:91:64:ee:
         6c:95:3c:5b:e5:e6:00:67:26:30:2f:c4:8e:2d:1d:85:fc:1d:
         c9:35:11:5a:fa:75:f0:62:42:7a:2e:7b:14:5f:56:9d:27:03:
         61:6e:71:f4:76:03:77:6e:43:9a:09:3b:de:8f:3e:5d:3c:38:
         eb:de:f9:ba:a9:02:bb:c8:d1:71:4d:00:73:48:c9:63:c8:9a:
         90:9a:db:c4:18:01:7f:c1:ce:b5:9a:8b:58:4b:b1:be:64:6a:
         56:dd:f5:bb:8f:30:4a:3e:e3:5d:60:f9:fa:bc:65:56:2c:2a:
         0a:30:e2:0a:cf:cb:18:e0:d4:bd:0a:3a:1e:fb:4f:13:25:a7:
         3f:d4:df:6a:74:91:aa:9e:f8:86:02:3c:7f:04:8c:6f:d8:f2:
         60:8a:73:6a:d2:8c:74:d5:26:42:72:e9:bc:f0:3f:f2:82:81:
         87:e7:00:0e:fb:d2:53:0b:03:81:4e:4a:de:d1:8e:69:46:8e:
         76:55:2b:1f:65:f2:2f:95:a7:39:8c:de:83:5d:e7:7c:ae:26:
         fa:83:18:36:67:ec:64:3c:b9:54:a6:08:3b:c3:b6:eb:d5:1b:
         35:01:9e:5b:14:d1:ac:10:9b:c8:d8:7e:42:2b:97:13:5c:ae:
         bb:ec:1d:83:bd:5e:3d:51:d4:b6:93:70:b4:84:9b:76:69:97:
         57:6b:4a:3a:4b:81:fe:40:6b:fa:4d:33:b1:f4:6c:e4:fc:76:
         47:e3:7f:28:cc:93:1e:a4:02:6e:53:2d:31:0d:47:de:03:07:
         5c:58:a1:e3:fb:69:a4:a0:9c:42:4a:4e:ef:d0:34:b5:d2:68:
         32:83:8f:5f:c7:0e:f7:35:39:29:73:85:54:2d:4e:38:95:a0:
         2d:11:09:71:e7:f2:a8:1f:b6:e0:76:66:2e:03:88:09:5a:e3:
         fe:ab:84:5c:e7:cb:b8:cf
-----BEGIN CERTIFICATE-----
MIIFkjCCA3qgAwIBAgIRAOYr+SJcPvr5EATyaTk7p0owDQYJKoZIhvcNAQELBQAw
MTELMAkGA1UEBhMCR0IxEDAOBgNVBAoMB0V4YW1wbGUxEDAOBgNVBAMMB1Jvb3Qg
Q0EwIhgPMjAyMTAxMDEwMDAwMDBaGA8yMDIxMDEwMjAwMDAwMFowMDELMAkGA1UE
BhMCR0IxEDAOBgNVBAoMB0V4YW1wbGUxDzANBgNVBAMMBlN1YiBDQTCCASIwDQYJ
KoZIhvcNAQEBBQADggEPADCCAQoCggEBALb75HsRnBbGszqdaaAQc1niQNxHoZto
WDWAdByf+KbyZjc1shcmPOhg2Kygcxv6dAyNnoEc8VXRedZpITN6CS9E0fsPRY9q
+ahCAnLNFmhmSbgq0V+4x70Ntsi68KS8gFIIHCN7nxE7xcrhxdd6KzTKcvXI4RRt
Yvs8yJrXJE7laL6Qlz9bnwSzVDIdVjKT8cEGu0VUeEqzZ0Jecckr/VdK0kyEdX+E
D2jFQ8w5+yGf/ch1Y8y2IiqO+/RpmZhsUP8NxQ5OcwNZHbgeaXrBUreVdf0Dz3HD
y/I03eaU7HQ/5sSdV8ZbKxIE9B4sq7AH9MUnenwi3orH57T1vvoUMmcCAwEAAaOC
AaAwggGcMHQGCCsGAQUFBwEBBGgwZjAyBggrBgEFBQcwAoYmaHR0cDovL3Jvb3Qt
Y2EuZXhhbXBsZS5jb20vcm9vdC1jYS5jcnQwMAYIKwYBBQUHMAGGJGh0dHA6Ly9v
Y3NwLnJvb3QtY2EuZXhhbXBsZS5jb206OTA4MDAfBgNVHSMEGDAWgBTJeqwimft5
rw93rI4ki+1fXIPxmTASBgNVHRMBAf8ECDAGAQH/AgEAMDcGA1UdHwQwMC4wLKAq
oCiGJmh0dHA6Ly9yb290LWNhLmV4YW1wbGUuY29tL3Jvb3QtY2EuY3JsMB0GA1Ud
JQQWMBQGCCsGAQUFBwMCBggrBgEFBQcDATAOBgNVHQ8BAf8EBAMCAQYwaAYDVR0e
BGEwX6ArMA2CC2V4YW1wbGUuY29tMA2CC2V4YW1wbGUub3JnMAuCCWxvY2FsaG9z
dKEwMAqHCAAAAAAAAAAAMCKHIAAAAAAAAAAAAAAAAAAAAAAAAAAAAAAAAAAAAAAA
AAAAMB0GA1UdDgQWBBRVlrIxcXZhpV7T58sS3rm6tVFjTDANBgkqhkiG9w0BAQsF
AAOCAgEADz/rj/OYHpZgP8Jv3S6yZRy+PiARobIEYLvNqrzzXJVaM8THZ84+ggHc
L7sGQWbWyAbWcbjLEnhA42Z84WfOT5teVEo7/ye0IAfEh5QaY02eHnZ5p3ps9mVA
iTNoHbi1jLpqtrDNftYyvuoIlLLUXWyaINr7C5fTLsk40BVCFViGVgRmZGxPTRTM
zoYprgH3eLBxrRfVgT8sVvEpMEI1kWTubJU8W+XmAGcmMC/Eji0dhfwdyTURWvp1
8GJCei57FF9WnScDYW5x9HYDd25Dmgk73o8+XTw46975uqkCu8jRcU0Ac0jJY8ia
kJrbxBgBf8HOtZqLWEuxvmRqVt31u48wSj7jXWD5+rxlViwqCjDiCs/LGODUvQo6
HvtPEyWnP9TfanSRqp74hgI8fwSMb9jyYIpzatKMdNUmQnLpvPA/8oKBh+cADvvS
UwsDgU5K3tGOaUaOdlUrH2XyL5WnOYzeg13nfK4m+oMYNmfsZDy5VKYIO8O269Ub
NQGeWxTRrBCbyNh+QiuXE1yuu+wdg71ePVHUtpNwtISbdmmXV2tKOkuB/kBr+k0z
sfRs5Px2R+N/KMyTHqQCblMtMQ1H3gMHXFih4/tppKCcQkpO79A0tdJoMoOPX8cO
9zU5KXOFVC1OOJWgLREJcefyqB+24HZmLgOICVrj/quEXOfLuM8=
-----END CERTIFICATE-----
