Certificate:
    Data:
        Version: 3 (0x2)
        Serial Number:
            e6:2b:f9:22:5c:3e:fa:f9:10:04:f2:69:39:3b:a7:47
    Signature Algorithm: sha256WithRSAEncryption
        Issuer: C=GB, O=Example, CN=Root CA
        Validity
            Not Before: Jan  3 16:24:56 2021 GMT
            Not After : Jun  3 16:24:56 2267 GMT
        Subject: C=GB, O=Example, CN=Sub CA
        Subject Public Key Info:
            Public Key Algorithm: rsaEncryption
                Public-Key: (2048 bit)
                Modulus:
                    00:b6:fb:e4:7b:11:9c:16:c6:b3:3a:9d:69:a0:10:
                    73:59:e2:40:dc:47:a1:9b:68:58:35:80:74:1c:9f:
                    f8:a6:f2:66:37:35:b2:17:26:3c:e8:60:d8:ac:a0:
                    73:1b:fa:74:0c:8d:9e:81:1c:f1:55:d1:79:d6:69:
                    21:33:7a:09:2f:44:d1:fb:0f:45:8f:6a:f9:a8:42:
                    02:72:cd:16:68:66:49:b8:2a:d1:5f:b8:c7:bd:0d:
                    b6:c8:ba:f0:a4:bc:80:52:08:1c:23:7b:9f:11:3b:
                    c5:ca:e1:c5:d7:7a:2b:34:ca:72:f5:c8:e1:14:6d:
                    62:fb:3c:c8:9a:d7:24:4e:e5:68:be:90:97:3f:5b:
                    9f:04:b3:54:32:1d:56:32:93:f1:c1:06:bb:45:54:
                    78:4a:b3:67:42:5e:71:c9:2b:fd:57:4a:d2:4c:84:
                    75:7f:84:0f:68:c5:43:cc:39:fb:21:9f:fd:c8:75:
                    63:cc:b6:22:2a:8e:fb:f4:69:99:98:6c:50:ff:0d:
                    c5:0e:4e:73:03:59:1d:b8:1e:69:7a:c1:52:b7:95:
                    75:fd:03:cf:71:c3:cb:f2:34:dd:e6:94:ec:74:3f:
                    e6:c4:9d:57:c6:5b:2b:12:04:f4:1e:2c:ab:b0:07:
                    f4:c5:27:7a:7c:22:de:8a:c7:e7:b4:f5:be:fa:14:
                    32:67
                Exponent: 65537 (0x10001)
        X509v3 extensions:
            Authority Information Access: 
                CA Issuers - URI:http://root-ca.example.com/root-ca.crt
                OCSP - URI:http://ocsp.root-ca.example.com:9080

            X509v3 Authority Key Identifier: 
                keyid:C9:7A:AC:22:99:FB:79:AF:0F:77:AC:8E:24:8B:ED:5F:5C:83:F1:99

            X509v3 Basic Constraints: critical
                CA:TRUE, pathlen:0
            X509v3 CRL Distribution Points: 

                Full Name:
                  URI:http://root-ca.example.com/root-ca.crl

            X509v3 Extended Key Usage: 
                TLS Web Client Authentication, TLS Web Server Authentication
            X509v3 Key Usage: critical
                Certificate Sign, CRL Sign
            X509v3 Name Constraints: 
                Permitted:
                  DNS:example.com
                  DNS:example.org
                  DNS:localhost
                Excluded:
                  IP:0.0.0.0/0.0.0.0
                  IP:0:0:0:0:0:0:0:0/0:0:0:0:0:0:0:0

            X509v3 Subject Key Identifier: 
                55:96:B2:31:71:76:61:A5:5E:D3:E7:CB:12:DE:B9:BA:B5:51:63:4C
    Signature Algorithm: sha256WithRSAEncryption
         89:ae:63:6c:88:7d:6d:ef:96:89:71:0d:55:51:a5:8d:bf:9e:
         be:5a:a4:8e:48:47:2a:2f:bd:53:a7:5d:b0:d1:e1:e1:10:80:
         ac:be:db:4f:3c:3e:d0:af:32:ad:66:3c:71:0d:c3:0d:5c:a5:
         5f:e1:c6:39:f5:5d:33:90:31:7d:cc:d9:37:ac:42:f8:e4:25:
         af:b5:e5:1a:0e:33:61:72:12:ba:73:20:b4:9b:19:c6:a1:9b:
         36:6f:82:80:8c:c6:a3:30:35:6a:73:0a:b9:42:de:11:3d:43:
         04:e9:01:b5:f0:70:45:6f:ca:8c:48:cb:31:b1:fd:76:31:f3:
         b6:16:a9:63:fd:54:69:76:9b:5e:a6:ac:a9:d4:2f:10:26:06:
         18:3a:4e:46:3a:01:36:16:d6:e9:c0:e8:c5:ee:42:7c:cd:17:
         76:6f:65:5d:ef:48:41:49:d8:11:b5:8f:12:52:35:a7:f8:d5:
         68:19:96:e9:7d:54:69:16:86:12:c3:f4:83:57:c7:d2:76:6c:
         0f:d0:1d:3d:16:c2:75:27:e6:d6:24:c1:84:70:5e:f0:e6:45:
         33:80:0b:dd:e0:02:8c:1f:de:74:21:df:2b:3b:aa:16:4b:93:
         fb:c3:5f:1b:a7:75:c4:17:4a:90:4c:57:f9:54:44:b9:c8:10:
         4f:fb:f9:2e:95:da:4a:ec:65:4a:a5:48:5e:15:11:14:ac:55:
         6d:a3:60:b7:ab:65:2e:e0:ea:d2:80:b0:80:12:50:b2:2e:cd:
         e3:ac:5e:dd:c0:f3:e1:eb:5a:9f:ce:35:da:1b:cc:3f:18:d5:
         56:ee:a4:74:69:9b:fd:38:54:ad:7f:ad:23:d1:b6:05:c3:a0:
         97:d5:30:37:a6:8a:06:00:72:59:4b:df:22:81:65:f1:ca:af:
         2e:a6:8a:5d:73:ae:4f:fc:37:2f:19:cd:98:39:76:9b:48:c3:
         a0:0b:30:2e:4a:a3:d8:6b:08:05:30:05:78:79:89:25:67:47:
         c3:2b:a7:cb:2e:e2:30:84:81:19:14:cd:41:5b:29:4f:29:ff:
         5a:51:67:a6:5f:c4:34:62:1b:df:b2:36:8a:af:13:02:70:96:
         92:61:78:44:b4:85:a6:c9:d8:96:5b:d3:ad:51:3d:27:98:18:
         70:38:18:92:a1:da:30:a8:3c:98:fa:39:9b:07:9a:6a:02:a7:
         14:af:16:d3:e7:fe:5c:ea:24:97:97:6f:93:69:04:aa:09:e9:
         d8:2e:92:48:9e:67:19:6f:f8:f9:1b:8d:f9:28:30:fa:15:ab:
         a6:cc:c7:36:0a:66:63:84:1e:8a:05:3b:3b:a0:f1:85:de:7e:
         c5:e0:1f:8b:44:96:bd:5d
-----BEGIN CERTIFICATE-----
MIIFkDCCA3igAwIBAgIRAOYr+SJcPvr5EATyaTk7p0cwDQYJKoZIhvcNAQELBQAw
MTELMAkGA1UEBhMCR0IxEDAOBgNVBAoMB0V4YW1wbGUxEDAOBgNVBAMMB1Jvb3Qg
Q0EwIBcNMjEwMTAzMTYyNDU2WhgPMjI2NzA2MDMxNjI0NTZaMDAxCzAJBgNVBAYT
AkdCMRAwDgYDVQQKDAdFeGFtcGxlMQ8wDQYDVQQDDAZTdWIgQ0EwggEiMA0GCSqG
SIb3DQEBAQUAA4IBDwAwggEKAoIBAQC2++R7EZwWxrM6nWmgEHNZ4kDcR6GbaFg1
gHQcn/im8mY3NbIXJjzoYNisoHMb+nQMjZ6BHPFV0XnWaSEzegkvRNH7D0WPavmo
QgJyzRZoZkm4KtFfuMe9DbbIuvCkvIBSCBwje58RO8XK4cXXeis0ynL1yOEUbWL7
PMia1yRO5Wi+kJc/W58Es1QyHVYyk/HBBrtFVHhKs2dCXnHJK/1XStJMhHV/hA9o
xUPMOfshn/3IdWPMtiIqjvv0aZmYbFD/DcUOTnMDWR24Hml6wVK3lXX9A89xw8vy
NN3mlOx0P+bEnVfGWysSBPQeLKuwB/TFJ3p8It6Kx+e09b76FDJnAgMBAAGjggGg
MIIBnDB0BggrBgEFBQcBAQRoMGYwMgYIKwYBBQUHMAKGJmh0dHA6Ly9yb290LWNh
LmV4YW1wbGUuY29tL3Jvb3QtY2EuY3J0MDAGCCsGAQUFBzABhiRodHRwOi8vb2Nz
cC5yb290LWNhLmV4YW1wbGUuY29tOjkwODAwHwYDVR0jBBgwFoAUyXqsIpn7ea8P
d6yOJIvtX1yD8ZkwEgYDVR0TAQH/BAgwBgEB/wIBADA3BgNVHR8EMDAuMCygKqAo
hiZodHRwOi8vcm9vdC1jYS5leGFtcGxlLmNvbS9yb290LWNhLmNybDAdBgNVHSUE
FjAUBggrBgEFBQcDAgYIKwYBBQUHAwEwDgYDVR0PAQH/BAQDAgEGMGgGA1UdHgRh
MF+gKzANggtleGFtcGxlLmNvbTANggtleGFtcGxlLm9yZzALgglsb2NhbGhvc3Sh
MDAKhwgAAAAAAAAAADAihyAAAAAAAAAAAAAAAAAAAAAAAAAAAAAAAAAAAAAAAAAA
ADAdBgNVHQ4EFgQUVZayMXF2YaVe0+fLEt65urVRY0wwDQYJKoZIhvcNAQELBQAD
ggIBAImuY2yIfW3vlolxDVVRpY2/nr5apI5IRyovvVOnXbDR4eEQgKy+2088PtCv
Mq1mPHENww1cpV/hxjn1XTOQMX3M2TesQvjkJa+15RoOM2FyErpzILSbGcahmzZv
goCMxqMwNWpzCrlC3hE9QwTpAbXwcEVvyoxIyzGx/XYx87YWqWP9VGl2m16mrKnU
LxAmBhg6TkY6ATYW1unA6MXuQnzNF3ZvZV3vSEFJ2BG1jxJSNaf41WgZlul9VGkW
hhLD9INXx9J2bA/QHT0WwnUn5tYkwYRwXvDmRTOAC93gAowf3nQh3ys7qhZLk/vD
XxundcQXSpBMV/lURLnIEE/7+S6V2krsZUqlSF4VERSsVW2jYLerZS7g6tKAsIAS
ULIuzeOsXt3A8+HrWp/ONdobzD8Y1VbupHRpm/04VK1/rSPRtgXDoJfVMDemigYA
cllL3yKBZfHKry6mil1zrk/8Ny8ZzZg5dptIw6ALMC5Ko9hrCAUwBXh5iSVnR8Mr
p8su4jCEgRkUzUFbKU8p/1pRZ6ZfxDRiG9+yNoqvEwJwlpJheES0habJ2JZb061R
PSeYGHA4GJKh2jCoPJj6OZsHmmoCpxSvFtPn/lzqJJeXb5NpBKoJ6dgukkieZxlv
+PkbjfkoMPoVq6bMxzYKZmOEHooFOzug8YXefsXgH4tElr1d
-----END CERTIFICATE-----
